target datalayout = "e-m:e-p270:32:32-p271:32:32-p272:64:64-i64:64-i128:128-f80:128-n8:16:32:64-S128"
target triple = "x86_64-pc-linux-gnu"

%"class.std::__cxx11::basic_string" = type { %"struct.std::__cxx11::basic_string<char>::_Alloc_hider", i64, %union.anon }
%"struct.std::__cxx11::basic_string<char>::_Alloc_hider" = type { ptr }
%union.anon = type { i64, [8 x i8] }
%"struct.faiss::AutoTuneCriterion" = type { ptr, i64, i64, i64, %"class.std::vector", %"class.std::vector.0" }
%"class.std::vector" = type { %"struct.std::_Vector_base" }
%"struct.std::_Vector_base" = type { %"struct.std::_Vector_base<float, std::allocator<float>>::_Vector_impl" }
%"struct.std::_Vector_base<float, std::allocator<float>>::_Vector_impl" = type { %"struct.std::_Vector_base<float, std::allocator<float>>::_Vector_impl_data" }
%"struct.std::_Vector_base<float, std::allocator<float>>::_Vector_impl_data" = type { ptr, ptr, ptr }
%"class.std::vector.0" = type { %"struct.std::_Vector_base.1" }
%"struct.std::_Vector_base.1" = type { %"struct.std::_Vector_base<long, std::allocator<long>>::_Vector_impl" }
%"struct.std::_Vector_base<long, std::allocator<long>>::_Vector_impl" = type { %"struct.std::_Vector_base<long, std::allocator<long>>::_Vector_impl_data" }
%"struct.std::_Vector_base<long, std::allocator<long>>::_Vector_impl_data" = type { ptr, ptr, ptr }
%"struct.faiss::OneRecallAtRCriterion" = type { %"struct.faiss::AutoTuneCriterion", i64 }

@.str.1 = private unnamed_addr constant [49 x i8] c"Error: '%s' failed: ground truth not initialized\00", align 1
@.str.2 = private unnamed_addr constant [56 x i8] c"(gt_I.size() == gt_nnn * nq && gt_nnn >= 1 && nnn >= R)\00", align 1
@__PRETTY_FUNCTION__._ZNK5faiss21OneRecallAtRCriterion8evaluateEPKfPKl = private unnamed_addr constant [90 x i8] c"virtual double faiss::OneRecallAtRCriterion::evaluate(const float *, const idx_t *) const\00", align 1
@.str.3 = private unnamed_addr constant [108 x i8] c"generated/home/dtcxzyw/WorkSpace/Projects/compilers/llvm-opt-benchmark/bench/faiss/faiss/faiss/AutoTune.cpp\00", align 1
@_ZTIN5faiss14FaissExceptionE = external constant ptr

; Function Attrs: mustprogress nounwind uwtable
define linkonce_odr noundef nonnull align 8 dereferenceable(8) ptr @_ZNKSt6vectorIlSaIlEEixEm(ptr noundef nonnull align 8 dereferenceable(24) %0, i64 noundef %1) #1 comdat align 2 {
  %3 = alloca ptr, align 8
  %4 = alloca i64, align 8
  store ptr %0, ptr %3, align 8
  store i64 %1, ptr %4, align 8
  %5 = load ptr, ptr %3, align 8
  %6 = getelementptr inbounds %"struct.std::_Vector_base.1", ptr %5, i32 0, i32 0
  %7 = getelementptr inbounds %"struct.std::_Vector_base<long, std::allocator<long>>::_Vector_impl_data", ptr %6, i32 0, i32 0
  %8 = load ptr, ptr %7, align 8
  %9 = load i64, ptr %4, align 8
  %10 = getelementptr inbounds i64, ptr %8, i64 %9
  ret ptr %10
}

; Function Attrs: mustprogress nounwind uwtable
define linkonce_odr noundef i64 @_ZNKSt6vectorIlSaIlEE4sizeEv(ptr noundef nonnull align 8 dereferenceable(24) %0) #1 comdat align 2 {
  %2 = alloca ptr, align 8
  store ptr %0, ptr %2, align 8
  %3 = load ptr, ptr %2, align 8
  %4 = getelementptr inbounds %"struct.std::_Vector_base.1", ptr %3, i32 0, i32 0
  %5 = getelementptr inbounds %"struct.std::_Vector_base<long, std::allocator<long>>::_Vector_impl_data", ptr %4, i32 0, i32 1
  %6 = load ptr, ptr %5, align 8
  %7 = getelementptr inbounds %"struct.std::_Vector_base.1", ptr %3, i32 0, i32 0
  %8 = getelementptr inbounds %"struct.std::_Vector_base<long, std::allocator<long>>::_Vector_impl_data", ptr %7, i32 0, i32 0
  %9 = load ptr, ptr %8, align 8
  %10 = ptrtoint ptr %6 to i64
  %11 = ptrtoint ptr %9 to i64
  %12 = sub i64 %10, %11
  %13 = sdiv exact i64 %12, 8
  ret i64 %13
}

; Function Attrs: mustprogress uwtable
define noundef double @_ZNK5faiss21OneRecallAtRCriterion8evaluateEPKfPKl(ptr noundef nonnull align 8 dereferenceable(88) %0, ptr noundef %1, ptr noundef %2) unnamed_addr #0 align 2 personality ptr @__gxx_personality_v0 {
  %4 = alloca ptr, align 8
  %5 = alloca ptr, align 8
  %6 = alloca ptr, align 8
  %7 = alloca %"class.std::__cxx11::basic_string", align 8
  %8 = alloca i32, align 4
  %9 = alloca ptr, align 8
  %10 = alloca i32, align 4
  %11 = alloca i64, align 8
  %12 = alloca i64, align 8
  %13 = alloca i64, align 8
  %14 = alloca ptr, align 8
  %15 = alloca i32, align 4
  store ptr %0, ptr %4, align 8
  store ptr %1, ptr %5, align 8
  store ptr %2, ptr %6, align 8
  %16 = load ptr, ptr %4, align 8
  br label %17

17:                                               ; preds = %3
  %18 = getelementptr inbounds %"struct.faiss::AutoTuneCriterion", ptr %16, i32 0, i32 5
  %19 = call noundef i64 @_ZNKSt6vectorIlSaIlEE4sizeEv(ptr noundef nonnull align 8 dereferenceable(24) %18) #5
  %20 = getelementptr inbounds %"struct.faiss::AutoTuneCriterion", ptr %16, i32 0, i32 3
  %21 = load i64, ptr %20, align 8
  %22 = getelementptr inbounds %"struct.faiss::AutoTuneCriterion", ptr %16, i32 0, i32 1
  %23 = load i64, ptr %22, align 8
  %24 = mul nsw i64 %21, %23
  %25 = icmp eq i64 %19, %24
  br i1 %25, label %26, label %36

26:                                               ; preds = %17
  %27 = getelementptr inbounds %"struct.faiss::AutoTuneCriterion", ptr %16, i32 0, i32 3
  %28 = load i64, ptr %27, align 8
  %29 = icmp sge i64 %28, 1
  br i1 %29, label %30, label %36

30:                                               ; preds = %26
  %31 = getelementptr inbounds %"struct.faiss::AutoTuneCriterion", ptr %16, i32 0, i32 2
  %32 = load i64, ptr %31, align 8
  %33 = getelementptr inbounds %"struct.faiss::OneRecallAtRCriterion", ptr %16, i32 0, i32 1
  %34 = load i64, ptr %33, align 8
  %35 = icmp sge i64 %32, %34
  br i1 %35, label %59, label %36

36:                                               ; preds = %30, %26, %17
  br label %37

37:                                               ; preds = %36
  call void @_ZNSt7__cxx1112basic_stringIcSt11char_traitsIcESaIcEEC1Ev(ptr noundef nonnull align 8 dereferenceable(32) %7) #5
  %38 = call i32 (ptr, i64, ptr, ...) @snprintf(ptr noundef null, i64 noundef 0, ptr noundef @.str.1, ptr noundef @.str.2) #5
  store i32 %38, ptr %8, align 4
  %39 = load i32, ptr %8, align 4
  %40 = add nsw i32 %39, 1
  %41 = sext i32 %40 to i64
  invoke void @_ZNSt7__cxx1112basic_stringIcSt11char_traitsIcESaIcEE6resizeEm(ptr noundef nonnull align 8 dereferenceable(32) %7, i64 noundef %41)
          to label %42 unwind label %49

42:                                               ; preds = %37
  %43 = invoke noundef nonnull align 1 dereferenceable(1) ptr @_ZNSt7__cxx1112basic_stringIcSt11char_traitsIcESaIcEEixEm(ptr noundef nonnull align 8 dereferenceable(32) %7, i64 noundef 0)
          to label %44 unwind label %49

44:                                               ; preds = %42
  %45 = call noundef i64 @_ZNKSt7__cxx1112basic_stringIcSt11char_traitsIcESaIcEE4sizeEv(ptr noundef nonnull align 8 dereferenceable(32) %7) #5
  %46 = call i32 (ptr, i64, ptr, ...) @snprintf(ptr noundef %43, i64 noundef %45, ptr noundef @.str.1, ptr noundef @.str.2) #5
  %47 = call ptr @__cxa_allocate_exception(i64 40) #5
  invoke void @_ZN5faiss14FaissExceptionC1ERKNSt7__cxx1112basic_stringIcSt11char_traitsIcESaIcEEEPKcSA_i(ptr noundef nonnull align 8 dereferenceable(40) %47, ptr noundef nonnull align 8 dereferenceable(32) %7, ptr noundef @__PRETTY_FUNCTION__._ZNK5faiss21OneRecallAtRCriterion8evaluateEPKfPKl, ptr noundef @.str.3, i32 noundef 68)
          to label %48 unwind label %53

48:                                               ; preds = %44
  invoke void @__cxa_throw(ptr %47, ptr @_ZTIN5faiss14FaissExceptionE, ptr @_ZN5faiss14FaissExceptionD2Ev) #19
          to label %117 unwind label %49

49:                                               ; preds = %48, %42, %37
  %50 = landingpad { ptr, i32 }
          cleanup
  %51 = extractvalue { ptr, i32 } %50, 0
  store ptr %51, ptr %9, align 8
  %52 = extractvalue { ptr, i32 } %50, 1
  store i32 %52, ptr %10, align 4
  br label %57

53:                                               ; preds = %44
  %54 = landingpad { ptr, i32 }
          cleanup
  %55 = extractvalue { ptr, i32 } %54, 0
  store ptr %55, ptr %9, align 8
  %56 = extractvalue { ptr, i32 } %54, 1
  store i32 %56, ptr %10, align 4
  call void @__cxa_free_exception(ptr %47) #5
  br label %57

57:                                               ; preds = %53, %49
  call void @_ZNSt7__cxx1112basic_stringIcSt11char_traitsIcESaIcEED1Ev(ptr noundef nonnull align 8 dereferenceable(32) %7) #5
  br label %112

58:                                               ; No predecessors!
  br label %59

59:                                               ; preds = %58, %30
  br label %60

60:                                               ; preds = %59
  store i64 0, ptr %11, align 8
  store i64 0, ptr %12, align 8
  br label %61

61:                                               ; preds = %102, %60
  %62 = load i64, ptr %12, align 8
  %63 = getelementptr inbounds %"struct.faiss::AutoTuneCriterion", ptr %16, i32 0, i32 1
  %64 = load i64, ptr %63, align 8
  %65 = icmp slt i64 %62, %64
  br i1 %65, label %66, label %105

66:                                               ; preds = %61
  %67 = getelementptr inbounds %"struct.faiss::AutoTuneCriterion", ptr %16, i32 0, i32 5
  %68 = load i64, ptr %12, align 8
  %69 = getelementptr inbounds %"struct.faiss::AutoTuneCriterion", ptr %16, i32 0, i32 3
  %70 = load i64, ptr %69, align 8
  %71 = mul nsw i64 %68, %70
  %72 = call noundef nonnull align 8 dereferenceable(8) ptr @_ZNKSt6vectorIlSaIlEEixEm(ptr noundef nonnull align 8 dereferenceable(24) %67, i64 noundef %71) #5
  %73 = load i64, ptr %72, align 8
  store i64 %73, ptr %13, align 8
  %74 = load ptr, ptr %6, align 8
  %75 = load i64, ptr %12, align 8
  %76 = getelementptr inbounds %"struct.faiss::AutoTuneCriterion", ptr %16, i32 0, i32 2
  %77 = load i64, ptr %76, align 8
  %78 = mul nsw i64 %75, %77
  %79 = getelementptr inbounds i64, ptr %74, i64 %78
  store ptr %79, ptr %14, align 8
  store i32 0, ptr %15, align 4
  br label %80

80:                                               ; preds = %98, %66
  %81 = load i32, ptr %15, align 4
  %82 = sext i32 %81 to i64
  %83 = getelementptr inbounds %"struct.faiss::OneRecallAtRCriterion", ptr %16, i32 0, i32 1
  %84 = load i64, ptr %83, align 8
  %85 = icmp slt i64 %82, %84
  br i1 %85, label %86, label %101

86:                                               ; preds = %80
  %87 = load ptr, ptr %14, align 8
  %88 = load i32, ptr %15, align 4
  %89 = sext i32 %88 to i64
  %90 = getelementptr inbounds i64, ptr %87, i64 %89
  %91 = load i64, ptr %90, align 8
  %92 = load i64, ptr %13, align 8
  %93 = icmp eq i64 %91, %92
  br i1 %93, label %94, label %97

94:                                               ; preds = %86
  %95 = load i64, ptr %11, align 8
  %96 = add nsw i64 %95, 1
  store i64 %96, ptr %11, align 8
  br label %101

97:                                               ; preds = %86
  br label %98

98:                                               ; preds = %97
  %99 = load i32, ptr %15, align 4
  %100 = add nsw i32 %99, 1
  store i32 %100, ptr %15, align 4
  br label %80, !llvm.loop !5

101:                                              ; preds = %94, %80
  br label %102

102:                                              ; preds = %101
  %103 = load i64, ptr %12, align 8
  %104 = add nsw i64 %103, 1
  store i64 %104, ptr %12, align 8
  br label %61, !llvm.loop !7

105:                                              ; preds = %61
  %106 = load i64, ptr %11, align 8
  %107 = sitofp i64 %106 to double
  %108 = getelementptr inbounds %"struct.faiss::AutoTuneCriterion", ptr %16, i32 0, i32 1
  %109 = load i64, ptr %108, align 8
  %110 = sitofp i64 %109 to double
  %111 = fdiv double %107, %110
  ret double %111

112:                                              ; preds = %57
  %113 = load ptr, ptr %9, align 8
  %114 = load i32, ptr %10, align 4
  %115 = insertvalue { ptr, i32 } poison, ptr %113, 0
  %116 = insertvalue { ptr, i32 } %115, i32 %114, 1
  resume { ptr, i32 } %116

117:                                              ; preds = %48
  unreachable
}