; Function Attrs: mustprogress uwtable
define noundef double @_ZNK5faiss21OneRecallAtRCriterion8evaluateEPKfPKl(ptr nocapture noundef nonnull readonly align 8 dereferenceable(88) %0, ptr nocapture readnone %1, ptr nocapture noundef readonly %2) unnamed_addr #0 align 2 personality ptr @__gxx_personality_v0 {
  %4 = alloca %"class.std::__cxx11::basic_string", align 8
  %5 = getelementptr inbounds i8, ptr %0, i64 56
  %6 = getelementptr inbounds i8, ptr %0, i64 64
  %7 = load ptr, ptr %6, align 8
  %8 = load ptr, ptr %5, align 8
  %9 = ptrtoint ptr %7 to i64
  %10 = ptrtoint ptr %8 to i64
  %11 = sub i64 %9, %10
  %12 = ashr exact i64 %11, 3
  %13 = getelementptr inbounds i8, ptr %0, i64 24
  %14 = load i64, ptr %13, align 8
  %15 = getelementptr inbounds i8, ptr %0, i64 8
  %16 = load i64, ptr %15, align 8
  %17 = mul nsw i64 %16, %14
  %18 = icmp eq i64 %12, %17
  %19 = icmp sgt i64 %14, 0
  %or.cond = and i1 %19, %18
  br i1 %or.cond, label %20, label %40

20:                                               ; preds = %3
  %21 = getelementptr inbounds i8, ptr %0, i64 16
  %22 = load i64, ptr %21, align 8
  %23 = getelementptr inbounds i8, ptr %0, i64 80
  %24 = load i64, ptr %23, align 8
  %.not = icmp slt i64 %22, %24
  br i1 %.not, label %40, label %.preheader

.preheader:                                       ; preds = %20
  %25 = icmp sgt i64 %16, 0
  %26 = icmp sgt i64 %24, 0
  %or.cond29 = and i1 %25, %26
  br i1 %or.cond29, label %.lr.ph.us, label %._crit_edge

.lr.ph.us:                                        ; preds = %.preheader, %..loopexit_crit_edge.us
  %.01724.us = phi i64 [ %39, %..loopexit_crit_edge.us ], [ 0, %.preheader ]
  %.01823.us = phi i64 [ %.1.us, %..loopexit_crit_edge.us ], [ 0, %.preheader ]
  %27 = mul nsw i64 %.01724.us, %14
  %28 = getelementptr inbounds i64, ptr %8, i64 %27
  %29 = load i64, ptr %28, align 8
  %30 = mul nsw i64 %.01724.us, %22
  %31 = getelementptr inbounds i64, ptr %2, i64 %30
  br label %33

32:                                               ; preds = %33
  %indvars.iv.next = add nuw nsw i64 %indvars.iv, 1
  %exitcond.not = icmp eq i64 %indvars.iv.next, %24
  br i1 %exitcond.not, label %..loopexit_crit_edge.us, label %33, !llvm.loop !5

33:                                               ; preds = %.lr.ph.us, %32
  %indvars.iv = phi i64 [ 0, %.lr.ph.us ], [ %indvars.iv.next, %32 ]
  %34 = getelementptr inbounds i64, ptr %31, i64 %indvars.iv
  %35 = load i64, ptr %34, align 8
  %36 = icmp eq i64 %35, %29
  br i1 %36, label %37, label %32

37:                                               ; preds = %33
  %38 = add nsw i64 %.01823.us, 1
  br label %..loopexit_crit_edge.us

..loopexit_crit_edge.us:                          ; preds = %32, %37
  %.1.us = phi i64 [ %38, %37 ], [ %.01823.us, %32 ]
  %39 = add nuw nsw i64 %.01724.us, 1
  %exitcond28.not = icmp eq i64 %39, %16
  br i1 %exitcond28.not, label %._crit_edge.loopexit, label %.lr.ph.us, !llvm.loop !7

40:                                               ; preds = %3, %20
  call void @_ZNSt7__cxx1112basic_stringIcSt11char_traitsIcESaIcEEC1Ev(ptr noundef nonnull align 8 dereferenceable(32) %4) #14
  %41 = call i32 (ptr, i64, ptr, ...) @snprintf(ptr noundef null, i64 noundef 0, ptr noundef nonnull @.str.1, ptr noundef nonnull @.str.2) #14
  %42 = add nsw i32 %41, 1
  %43 = sext i32 %42 to i64
  invoke void @_ZNSt7__cxx1112basic_stringIcSt11char_traitsIcESaIcEE6resizeEm(ptr noundef nonnull align 8 dereferenceable(32) %4, i64 noundef %43)
          to label %44 unwind label %51

44:                                               ; preds = %40
  %45 = invoke noundef nonnull align 1 dereferenceable(1) ptr @_ZNSt7__cxx1112basic_stringIcSt11char_traitsIcESaIcEEixEm(ptr noundef nonnull align 8 dereferenceable(32) %4, i64 noundef 0)
          to label %46 unwind label %51

46:                                               ; preds = %44
  %47 = call noundef i64 @_ZNKSt7__cxx1112basic_stringIcSt11char_traitsIcESaIcEE4sizeEv(ptr noundef nonnull align 8 dereferenceable(32) %4) #14
  %48 = call i32 (ptr, i64, ptr, ...) @snprintf(ptr noundef nonnull %45, i64 noundef %47, ptr noundef nonnull @.str.1, ptr noundef nonnull @.str.2) #14
  %49 = call ptr @__cxa_allocate_exception(i64 40) #14
  invoke void @_ZN5faiss14FaissExceptionC1ERKNSt7__cxx1112basic_stringIcSt11char_traitsIcESaIcEEEPKcSA_i(ptr noundef nonnull align 8 dereferenceable(40) %49, ptr noundef nonnull align 8 dereferenceable(32) %4, ptr noundef nonnull @__PRETTY_FUNCTION__._ZNK5faiss21OneRecallAtRCriterion8evaluateEPKfPKl, ptr noundef nonnull @.str.3, i32 noundef 68)
          to label %50 unwind label %53

50:                                               ; preds = %46
  invoke void @__cxa_throw(ptr nonnull %49, ptr nonnull @_ZTIN5faiss14FaissExceptionE, ptr nonnull @_ZN5faiss14FaissExceptionD2Ev) #30
          to label %59 unwind label %51

51:                                               ; preds = %50, %44, %40
  %52 = landingpad { ptr, i32 }
          cleanup
  br label %55

53:                                               ; preds = %46
  %54 = landingpad { ptr, i32 }
          cleanup
  call void @__cxa_free_exception(ptr %49) #14
  br label %55

55:                                               ; preds = %53, %51
  %.pn = phi { ptr, i32 } [ %52, %51 ], [ %54, %53 ]
  call void @_ZNSt7__cxx1112basic_stringIcSt11char_traitsIcESaIcEED1Ev(ptr noundef nonnull align 8 dereferenceable(32) %4) #14
  resume { ptr, i32 } %.pn

._crit_edge.loopexit:                             ; preds = %..loopexit_crit_edge.us
  %56 = sitofp i64 %.1.us to double
  br label %._crit_edge

._crit_edge:                                      ; preds = %._crit_edge.loopexit, %.preheader
  %.018.lcssa = phi double [ 0.000000e+00, %.preheader ], [ %56, %._crit_edge.loopexit ]
  %57 = sitofp i64 %16 to double
  %58 = fdiv double %.018.lcssa, %57
  ret double %58

59:                                               ; preds = %50
  unreachable
}